target datalayout = "e-m:e-p270:32:32-p271:32:32-p272:64:64-i64:64-i128:128-f80:128-n8:16:32:64-S128"
target triple = "x86_64-pc-linux-gnu"

%struct.stack_effects = type { i32, i32 }

@_PyOpcode_Deopt = external constant [256 x i8], align 16

; Function Attrs: nounwind uwtable
define internal i32 @get_stack_effects(i32 noundef %0, i32 noundef %1, i32 noundef %2, ptr noundef %3) #0 {
  %5 = alloca i32, align 4
  %6 = alloca i32, align 4
  %7 = alloca i32, align 4
  %8 = alloca i32, align 4
  %9 = alloca ptr, align 8
  %10 = alloca i32, align 4
  %11 = alloca i32, align 4
  %12 = alloca i32, align 4
  store i32 %0, ptr %6, align 4, !tbaa !19
  store i32 %1, ptr %7, align 4, !tbaa !19
  store i32 %2, ptr %8, align 4, !tbaa !19
  store ptr %3, ptr %9, align 8, !tbaa !97
  %13 = load i32, ptr %6, align 4, !tbaa !19
  %14 = icmp slt i32 %13, 0
  br i1 %14, label %15, label %16

15:                                               ; preds = %4
  store i32 -1, ptr %5, align 4
  br label %73

16:                                               ; preds = %4
  %17 = load i32, ptr %6, align 4, !tbaa !19
  %18 = icmp sle i32 %17, 254
  br i1 %18, label %19, label %28

19:                                               ; preds = %16
  %20 = load i32, ptr %6, align 4, !tbaa !19
  %21 = sext i32 %20 to i64
  %22 = getelementptr [256 x i8], ptr @_PyOpcode_Deopt, i64 0, i64 %21
  %23 = load i8, ptr %22, align 1, !tbaa !126
  %24 = zext i8 %23 to i32
  %25 = load i32, ptr %6, align 4, !tbaa !19
  %26 = icmp ne i32 %24, %25
  br i1 %26, label %27, label %28

27:                                               ; preds = %19
  store i32 -1, ptr %5, align 4
  br label %73

28:                                               ; preds = %19, %16
  call void @llvm.lifetime.start.p0(i64 4, ptr %10) #7
  %29 = load i32, ptr %6, align 4, !tbaa !19
  %30 = load i32, ptr %7, align 4, !tbaa !19
  %31 = call i32 @_PyOpcode_num_popped(i32 noundef %29, i32 noundef %30)
  store i32 %31, ptr %10, align 4, !tbaa !19
  call void @llvm.lifetime.start.p0(i64 4, ptr %11) #7
  %32 = load i32, ptr %6, align 4, !tbaa !19
  %33 = load i32, ptr %7, align 4, !tbaa !19
  %34 = call i32 @_PyOpcode_num_pushed(i32 noundef %32, i32 noundef %33)
  store i32 %34, ptr %11, align 4, !tbaa !19
  %35 = load i32, ptr %10, align 4, !tbaa !19
  %36 = icmp slt i32 %35, 0
  br i1 %36, label %40, label %37

37:                                               ; preds = %28
  %38 = load i32, ptr %11, align 4, !tbaa !19
  %39 = icmp slt i32 %38, 0
  br i1 %39, label %40, label %41

40:                                               ; preds = %37, %28
  store i32 -1, ptr %5, align 4
  store i32 1, ptr %12, align 4
  br label %72

41:                                               ; preds = %37
  %42 = load i32, ptr %6, align 4, !tbaa !19
  %43 = icmp eq i32 %42, 263
  br i1 %43, label %50, label %44

44:                                               ; preds = %41
  %45 = load i32, ptr %6, align 4, !tbaa !19
  %46 = icmp eq i32 %45, 264
  br i1 %46, label %50, label %47

47:                                               ; preds = %44
  %48 = load i32, ptr %6, align 4, !tbaa !19
  %49 = icmp eq i32 %48, 262
  br i1 %49, label %50, label %58

50:                                               ; preds = %47, %44, %41
  %51 = load i32, ptr %8, align 4, !tbaa !19
  %52 = icmp ne i32 %51, 0
  br i1 %52, label %58, label %53

53:                                               ; preds = %50
  %54 = load ptr, ptr %9, align 8, !tbaa !97
  %55 = getelementptr inbounds nuw %struct.stack_effects, ptr %54, i32 0, i32 0
  store i32 0, ptr %55, align 4, !tbaa !113
  %56 = load ptr, ptr %9, align 8, !tbaa !97
  %57 = getelementptr inbounds nuw %struct.stack_effects, ptr %56, i32 0, i32 1
  store i32 0, ptr %57, align 4, !tbaa !115
  store i32 0, ptr %5, align 4
  store i32 1, ptr %12, align 4
  br label %72

58:                                               ; preds = %50, %47
  %59 = load i32, ptr %6, align 4, !tbaa !19
  %60 = load i32, ptr %7, align 4, !tbaa !19
  %61 = load ptr, ptr %9, align 8, !tbaa !97
  %62 = getelementptr inbounds nuw %struct.stack_effects, ptr %61, i32 0, i32 1
  %63 = call i32 @_PyOpcode_max_stack_effect(i32 noundef %59, i32 noundef %60, ptr noundef %62)
  %64 = icmp slt i32 %63, 0
  br i1 %64, label %65, label %66

65:                                               ; preds = %58
  store i32 -1, ptr %5, align 4
  store i32 1, ptr %12, align 4
  br label %72

66:                                               ; preds = %58
  %67 = load i32, ptr %11, align 4, !tbaa !19
  %68 = load i32, ptr %10, align 4, !tbaa !19
  %69 = sub i32 %67, %68
  %70 = load ptr, ptr %9, align 8, !tbaa !97
  %71 = getelementptr inbounds nuw %struct.stack_effects, ptr %70, i32 0, i32 0
  store i32 %69, ptr %71, align 4, !tbaa !113
  store i32 0, ptr %5, align 4
  store i32 1, ptr %12, align 4
  br label %72

72:                                               ; preds = %66, %65, %53, %40
  call void @llvm.lifetime.end.p0(i64 4, ptr %11) #7
  call void @llvm.lifetime.end.p0(i64 4, ptr %10) #7
  br label %73

73:                                               ; preds = %72, %27, %15
  %74 = load i32, ptr %5, align 4
  ret i32 %74
}

; Function Attrs: nounwind uwtable
define dso_local i32 @PyCompile_OpcodeStackEffect(i32 noundef %0, i32 noundef %1) #0 {
  %3 = alloca i32, align 4
  %4 = alloca i32, align 4
  %5 = alloca i32, align 4
  %6 = alloca %struct.stack_effects, align 4
  %7 = alloca i32, align 4
  store i32 %0, ptr %4, align 4, !tbaa !19
  store i32 %1, ptr %5, align 4, !tbaa !19
  call void @llvm.lifetime.start.p0(i64 8, ptr %6) #7
  %8 = load i32, ptr %4, align 4, !tbaa !19
  %9 = load i32, ptr %5, align 4, !tbaa !19
  %10 = call i32 @get_stack_effects(i32 noundef %8, i32 noundef %9, i32 noundef -1, ptr noundef %6)
  %11 = icmp slt i32 %10, 0
  br i1 %11, label %12, label %13

12:                                               ; preds = %2
  store i32 2147483647, ptr %3, align 4
  store i32 1, ptr %7, align 4
  br label %16

13:                                               ; preds = %2
  %14 = getelementptr inbounds nuw %struct.stack_effects, ptr %6, i32 0, i32 0
  %15 = load i32, ptr %14, align 4, !tbaa !113
  store i32 %15, ptr %3, align 4
  store i32 1, ptr %7, align 4
  br label %16

16:                                               ; preds = %13, %12
  call void @llvm.lifetime.end.p0(i64 8, ptr %6) #7
  %17 = load i32, ptr %3, align 4
  ret i32 %17
}