; Function Attrs: nounwind uwtable
define dso_local range(i32 -2147483647, -2147483648) i32 @PyCompile_OpcodeStackEffect(i32 noundef %0, i32 noundef %1) local_unnamed_addr #0 {
  %3 = alloca %struct.stack_effects, align 4
  call void @llvm.lifetime.start.p0(i64 8, ptr nonnull %3) #8
  %4 = icmp slt i32 %0, 0
  br i1 %4, label %get_stack_effects.exit, label %5

5:                                                ; preds = %2
  %6 = icmp samesign ult i32 %0, 255
  br i1 %6, label %7, label %12

7:                                                ; preds = %5
  %8 = zext nneg i32 %0 to i64
  %9 = getelementptr [256 x i8], ptr @_PyOpcode_Deopt, i64 0, i64 %8
  %10 = load i8, ptr %9, align 1, !tbaa !55
  %11 = zext i8 %10 to i32
  %.not.i = icmp eq i32 %0, %11
  br i1 %.not.i, label %12, label %get_stack_effects.exit

12:                                               ; preds = %7, %5
  %13 = tail call i32 @_PyOpcode_num_popped(i32 noundef %0, i32 noundef %1) #8
  %14 = tail call i32 @_PyOpcode_num_pushed(i32 noundef %0, i32 noundef %1) #8
  %15 = icmp slt i32 %13, 0
  %16 = icmp slt i32 %14, 0
  %or.cond.i = select i1 %15, i1 true, i1 %16
  br i1 %or.cond.i, label %get_stack_effects.exit, label %17

17:                                               ; preds = %12
  %18 = getelementptr inbounds nuw i8, ptr %3, i64 4
  %19 = call i32 @_PyOpcode_max_stack_effect(i32 noundef %0, i32 noundef %1, ptr noundef nonnull %18) #8
  %20 = icmp slt i32 %19, 0
  %21 = sub nsw i32 %14, %13
  %spec.select = select i1 %20, i32 2147483647, i32 %21
  br label %get_stack_effects.exit

get_stack_effects.exit:                           ; preds = %17, %12, %7, %2
  %22 = phi i32 [ 2147483647, %2 ], [ 2147483647, %7 ], [ 2147483647, %12 ], [ %spec.select, %17 ]
  call void @llvm.lifetime.end.p0(i64 8, ptr nonnull %3) #8
  ret i32 %22
}